target datalayout = "e-m:e-p270:32:32-p271:32:32-p272:64:64-i64:64-i128:128-f80:128-n8:16:32:64-S128"
target triple = "x86_64-pc-linux-gnu"

%struct.AllocSetContext = type { %struct.MemoryContextData, ptr, [11 x ptr], i32, i32, i32, i32, i32 }
%struct.MemoryContextData = type { i32, i8, i8, i64, ptr, ptr, ptr, ptr, ptr, ptr, ptr, ptr }
%struct.AllocBlockData = type { ptr, ptr, ptr, ptr, ptr }
%struct.MemoryChunk = type { i64 }

; Function Attrs: inlinehint nounwind uwtable
define internal void @MemoryChunkSetHdrMaskExternal(ptr noundef %0, i32 noundef %1) #8 {
  %3 = alloca ptr, align 8
  %4 = alloca i32, align 4
  store ptr %0, ptr %3, align 8
  store i32 %1, ptr %4, align 4
  %5 = load i32, ptr %4, align 4
  %6 = zext i32 %5 to i64
  %7 = or i64 -5645020766237429840, %6
  %8 = load ptr, ptr %3, align 8
  %9 = getelementptr inbounds nuw %struct.MemoryChunk, ptr %8, i32 0, i32 0
  store i64 %7, ptr %9, align 8
  ret void
}

; Function Attrs: inlinehint nounwind uwtable
define internal void @MemoryContextCheckSize(ptr noundef %0, i64 noundef %1, i32 noundef %2) #8 {
  %4 = alloca ptr, align 8
  %5 = alloca i64, align 8
  %6 = alloca i32, align 4
  store ptr %0, ptr %4, align 8
  store i64 %1, ptr %5, align 8
  store i32 %2, ptr %6, align 4
  %7 = load i64, ptr %5, align 8
  %8 = icmp ule i64 %7, 1073741823
  %9 = xor i1 %8, true
  %10 = zext i1 %9 to i32
  %11 = icmp ne i32 %10, 0
  %12 = zext i1 %11 to i32
  %13 = sext i32 %12 to i64
  %14 = call i64 @llvm.expect.i64(i64 %13, i64 0)
  %15 = icmp ne i64 %14, 0
  br i1 %15, label %16, label %28

16:                                               ; preds = %3
  %17 = load i32, ptr %6, align 4
  %18 = and i32 %17, 1
  %19 = icmp ne i32 %18, 0
  br i1 %19, label %20, label %23

20:                                               ; preds = %16
  %21 = load i64, ptr %5, align 8
  %22 = icmp ule i64 %21, 9223372036854775807
  br i1 %22, label %27, label %23

23:                                               ; preds = %20, %16
  %24 = load ptr, ptr %4, align 8
  %25 = load i64, ptr %5, align 8
  %26 = load i32, ptr %6, align 4
  call void @MemoryContextSizeFailure(ptr noundef %24, i64 noundef %25, i32 noundef %26) #18
  unreachable

27:                                               ; preds = %20
  br label %28

28:                                               ; preds = %27, %3
  ret void
}

; Function Attrs: noinline nounwind uwtable
define internal ptr @AllocSetAllocLarge(ptr noundef %0, i64 noundef %1, i32 noundef %2) #7 {
  %4 = alloca ptr, align 8
  %5 = alloca ptr, align 8
  %6 = alloca i64, align 8
  %7 = alloca i32, align 4
  %8 = alloca ptr, align 8
  %9 = alloca ptr, align 8
  %10 = alloca ptr, align 8
  %11 = alloca i64, align 8
  %12 = alloca i64, align 8
  %13 = alloca i32, align 4
  store ptr %0, ptr %5, align 8
  store i64 %1, ptr %6, align 8
  store i32 %2, ptr %7, align 4
  call void @llvm.lifetime.start.p0(i64 8, ptr %8) #14
  %14 = load ptr, ptr %5, align 8
  store ptr %14, ptr %8, align 8
  call void @llvm.lifetime.start.p0(i64 8, ptr %9) #14
  call void @llvm.lifetime.start.p0(i64 8, ptr %10) #14
  call void @llvm.lifetime.start.p0(i64 8, ptr %11) #14
  call void @llvm.lifetime.start.p0(i64 8, ptr %12) #14
  %15 = load ptr, ptr %5, align 8
  %16 = load i64, ptr %6, align 8
  %17 = load i32, ptr %7, align 4
  call void @MemoryContextCheckSize(ptr noundef %15, i64 noundef %16, i32 noundef %17)
  %18 = load i64, ptr %6, align 8
  %19 = add i64 %18, 7
  %20 = and i64 %19, -8
  store i64 %20, ptr %11, align 8
  %21 = load i64, ptr %11, align 8
  %22 = add i64 %21, 40
  %23 = add i64 %22, 8
  store i64 %23, ptr %12, align 8
  %24 = load i64, ptr %12, align 8
  %25 = call noalias ptr @malloc(i64 noundef %24) #15
  store ptr %25, ptr %9, align 8
  %26 = load ptr, ptr %9, align 8
  %27 = icmp eq ptr %26, null
  br i1 %27, label %28, label %33

28:                                               ; preds = %3
  %29 = load ptr, ptr %5, align 8
  %30 = load i64, ptr %6, align 8
  %31 = load i32, ptr %7, align 4
  %32 = call ptr @MemoryContextAllocationFailure(ptr noundef %29, i64 noundef %30, i32 noundef %31)
  store ptr %32, ptr %4, align 8
  store i32 1, ptr %13, align 4
  br label %102

33:                                               ; preds = %3
  %34 = load i64, ptr %12, align 8
  %35 = load ptr, ptr %5, align 8
  %36 = getelementptr inbounds nuw %struct.MemoryContextData, ptr %35, i32 0, i32 3
  %37 = load i64, ptr %36, align 8
  %38 = add i64 %37, %34
  store i64 %38, ptr %36, align 8
  %39 = load ptr, ptr %8, align 8
  %40 = load ptr, ptr %9, align 8
  %41 = getelementptr inbounds nuw %struct.AllocBlockData, ptr %40, i32 0, i32 0
  store ptr %39, ptr %41, align 8
  %42 = load ptr, ptr %9, align 8
  %43 = load i64, ptr %12, align 8
  %44 = getelementptr inbounds nuw i8, ptr %42, i64 %43
  %45 = load ptr, ptr %9, align 8
  %46 = getelementptr inbounds nuw %struct.AllocBlockData, ptr %45, i32 0, i32 4
  store ptr %44, ptr %46, align 8
  %47 = load ptr, ptr %9, align 8
  %48 = getelementptr inbounds nuw %struct.AllocBlockData, ptr %47, i32 0, i32 3
  store ptr %44, ptr %48, align 8
  %49 = load ptr, ptr %9, align 8
  %50 = getelementptr inbounds nuw i8, ptr %49, i64 40
  store ptr %50, ptr %10, align 8
  %51 = load ptr, ptr %10, align 8
  call void @MemoryChunkSetHdrMaskExternal(ptr noundef %51, i32 noundef 3)
  %52 = load ptr, ptr %8, align 8
  %53 = getelementptr inbounds nuw %struct.AllocSetContext, ptr %52, i32 0, i32 1
  %54 = load ptr, ptr %53, align 8
  %55 = icmp ne ptr %54, null
  br i1 %55, label %56, label %85

56:                                               ; preds = %33
  %57 = load ptr, ptr %8, align 8
  %58 = getelementptr inbounds nuw %struct.AllocSetContext, ptr %57, i32 0, i32 1
  %59 = load ptr, ptr %58, align 8
  %60 = load ptr, ptr %9, align 8
  %61 = getelementptr inbounds nuw %struct.AllocBlockData, ptr %60, i32 0, i32 1
  store ptr %59, ptr %61, align 8
  %62 = load ptr, ptr %8, align 8
  %63 = getelementptr inbounds nuw %struct.AllocSetContext, ptr %62, i32 0, i32 1
  %64 = load ptr, ptr %63, align 8
  %65 = getelementptr inbounds nuw %struct.AllocBlockData, ptr %64, i32 0, i32 2
  %66 = load ptr, ptr %65, align 8
  %67 = load ptr, ptr %9, align 8
  %68 = getelementptr inbounds nuw %struct.AllocBlockData, ptr %67, i32 0, i32 2
  store ptr %66, ptr %68, align 8
  %69 = load ptr, ptr %9, align 8
  %70 = getelementptr inbounds nuw %struct.AllocBlockData, ptr %69, i32 0, i32 2
  %71 = load ptr, ptr %70, align 8
  %72 = icmp ne ptr %71, null
  br i1 %72, label %73, label %79

73:                                               ; preds = %56
  %74 = load ptr, ptr %9, align 8
  %75 = load ptr, ptr %9, align 8
  %76 = getelementptr inbounds nuw %struct.AllocBlockData, ptr %75, i32 0, i32 2
  %77 = load ptr, ptr %76, align 8
  %78 = getelementptr inbounds nuw %struct.AllocBlockData, ptr %77, i32 0, i32 1
  store ptr %74, ptr %78, align 8
  br label %79

79:                                               ; preds = %73, %56
  %80 = load ptr, ptr %9, align 8
  %81 = load ptr, ptr %8, align 8
  %82 = getelementptr inbounds nuw %struct.AllocSetContext, ptr %81, i32 0, i32 1
  %83 = load ptr, ptr %82, align 8
  %84 = getelementptr inbounds nuw %struct.AllocBlockData, ptr %83, i32 0, i32 2
  store ptr %80, ptr %84, align 8
  br label %93

85:                                               ; preds = %33
  %86 = load ptr, ptr %9, align 8
  %87 = getelementptr inbounds nuw %struct.AllocBlockData, ptr %86, i32 0, i32 1
  store ptr null, ptr %87, align 8
  %88 = load ptr, ptr %9, align 8
  %89 = getelementptr inbounds nuw %struct.AllocBlockData, ptr %88, i32 0, i32 2
  store ptr null, ptr %89, align 8
  %90 = load ptr, ptr %9, align 8
  %91 = load ptr, ptr %8, align 8
  %92 = getelementptr inbounds nuw %struct.AllocSetContext, ptr %91, i32 0, i32 1
  store ptr %90, ptr %92, align 8
  br label %93

93:                                               ; preds = %85, %79
  br label %94

94:                                               ; preds = %93
  br label %95

95:                                               ; preds = %94
  br label %96

96:                                               ; preds = %95
  br label %97

97:                                               ; preds = %96
  br label %98

98:                                               ; preds = %97
  br label %99

99:                                               ; preds = %98
  %100 = load ptr, ptr %10, align 8
  %101 = getelementptr inbounds nuw i8, ptr %100, i64 8
  store ptr %101, ptr %4, align 8
  store i32 1, ptr %13, align 4
  br label %102

102:                                              ; preds = %99, %28
  call void @llvm.lifetime.end.p0(i64 8, ptr %12) #14
  call void @llvm.lifetime.end.p0(i64 8, ptr %11) #14
  call void @llvm.lifetime.end.p0(i64 8, ptr %10) #14
  call void @llvm.lifetime.end.p0(i64 8, ptr %9) #14
  call void @llvm.lifetime.end.p0(i64 8, ptr %8) #14
  %103 = load ptr, ptr %4, align 8
  ret ptr %103
}