; Function Attrs: noinline nounwind uwtable
define internal fastcc ptr @AllocSetAllocLarge(ptr noundef %0, i64 noundef range(i64 1, 0) %1, i32 noundef %2) unnamed_addr #6 {
  %4 = icmp ugt i64 %1, 1073741823
  br i1 %4, label %5, label %MemoryContextCheckSize.exit, !prof !11

5:                                                ; preds = %3
  %6 = and i32 %2, 1
  %7 = icmp ne i32 %6, 0
  %8 = icmp sgt i64 %1, -1
  %or.cond.i = and i1 %8, %7
  br i1 %or.cond.i, label %MemoryContextCheckSize.exit, label %9

9:                                                ; preds = %5
  tail call void @MemoryContextSizeFailure(ptr noundef %0, i64 noundef %1, i32 noundef %2) #18
  unreachable

MemoryContextCheckSize.exit:                      ; preds = %3, %5
  %10 = add nuw i64 %1, 7
  %11 = and i64 %10, -8
  %12 = add nuw i64 %11, 48
  %13 = tail call noalias ptr @malloc(i64 noundef %12) #16
  %14 = icmp eq ptr %13, null
  br i1 %14, label %15, label %17

15:                                               ; preds = %MemoryContextCheckSize.exit
  %16 = tail call ptr @MemoryContextAllocationFailure(ptr noundef %0, i64 noundef %1, i32 noundef %2) #15
  br label %40

17:                                               ; preds = %MemoryContextCheckSize.exit
  %18 = getelementptr inbounds nuw i8, ptr %0, i64 8
  %19 = load i64, ptr %18, align 8
  %20 = add i64 %19, %12
  store i64 %20, ptr %18, align 8
  store ptr %0, ptr %13, align 8
  %21 = getelementptr inbounds nuw i8, ptr %13, i64 %12
  %22 = getelementptr inbounds nuw i8, ptr %13, i64 32
  store ptr %21, ptr %22, align 8
  %23 = getelementptr inbounds nuw i8, ptr %13, i64 24
  store ptr %21, ptr %23, align 8
  %24 = getelementptr inbounds nuw i8, ptr %13, i64 40
  store i64 -5645020766237429837, ptr %24, align 8
  %25 = getelementptr inbounds nuw i8, ptr %0, i64 80
  %26 = load ptr, ptr %25, align 8
  %.not = icmp eq ptr %26, null
  %27 = getelementptr inbounds nuw i8, ptr %13, i64 8
  br i1 %.not, label %37, label %28

28:                                               ; preds = %17
  store ptr %26, ptr %27, align 8
  %29 = getelementptr inbounds nuw i8, ptr %26, i64 16
  %30 = load ptr, ptr %29, align 8
  %31 = getelementptr inbounds nuw i8, ptr %13, i64 16
  store ptr %30, ptr %31, align 8
  %.not39 = icmp eq ptr %30, null
  br i1 %.not39, label %34, label %32

32:                                               ; preds = %28
  %33 = getelementptr inbounds nuw i8, ptr %30, i64 8
  store ptr %13, ptr %33, align 8
  %.pre = load ptr, ptr %25, align 8
  br label %34

34:                                               ; preds = %32, %28
  %35 = phi ptr [ %.pre, %32 ], [ %26, %28 ]
  %36 = getelementptr inbounds nuw i8, ptr %35, i64 16
  store ptr %13, ptr %36, align 8
  br label %38

37:                                               ; preds = %17
  tail call void @llvm.memset.p0.i64(ptr noundef nonnull align 8 dereferenceable(16) %27, i8 0, i64 16, i1 false)
  store ptr %13, ptr %25, align 8
  br label %38

38:                                               ; preds = %37, %34
  %39 = getelementptr inbounds nuw i8, ptr %13, i64 48
  br label %40

40:                                               ; preds = %38, %15
  %.0 = phi ptr [ %16, %15 ], [ %39, %38 ]
  ret ptr %.0
}